target datalayout = "e-m:e-p270:32:32-p271:32:32-p272:64:64-i64:64-i128:128-f80:128-n8:16:32:64-S128"
target triple = "x86_64-pc-linux-gnu"

%struct.prov_drbg_st = type { ptr, ptr, ptr, ptr, ptr, ptr, ptr, ptr, ptr, ptr, ptr, ptr, ptr, ptr, i32, i16, i32, i64, i64, i64, i64, i64, i64, i64, i32, i32, i64, i64, i32, i32, i32, i64, i32, ptr, ptr, ptr, ptr, ptr, ptr }
%struct.rand_drbg_ctr_st = type { ptr, ptr, ptr, ptr, ptr, i64, i32, [32 x i8], [16 x i8], [16 x i8], i64, [48 x i8] }

@.str = private unnamed_addr constant [54 x i8] c"../openssl/providers/implementations/rands/drbg_ctr.c\00", align 1

; Function Attrs: nounwind uwtable
define internal i32 @drbg_ctr_init_lengths(ptr noundef %0) #0 {
  %2 = alloca ptr, align 8
  %3 = alloca ptr, align 8
  %4 = alloca i32, align 4
  %5 = alloca i64, align 8
  store ptr %0, ptr %2, align 8, !tbaa !9
  call void @llvm.lifetime.start.p0(i64 8, ptr %3) #6
  %6 = load ptr, ptr %2, align 8, !tbaa !9
  %7 = getelementptr inbounds nuw %struct.prov_drbg_st, ptr %6, i32 0, i32 33
  %8 = load ptr, ptr %7, align 8, !tbaa !11
  store ptr %8, ptr %3, align 8, !tbaa !17
  call void @llvm.lifetime.start.p0(i64 4, ptr %4) #6
  store i32 1, ptr %4, align 4, !tbaa !27
  %9 = load ptr, ptr %2, align 8, !tbaa !9
  %10 = getelementptr inbounds nuw %struct.prov_drbg_st, ptr %9, i32 0, i32 17
  store i64 65536, ptr %10, align 8, !tbaa !45
  %11 = load ptr, ptr %3, align 8, !tbaa !17
  %12 = getelementptr inbounds nuw %struct.rand_drbg_ctr_st, ptr %11, i32 0, i32 6
  %13 = load i32, ptr %12, align 8, !tbaa !34
  %14 = icmp ne i32 %13, 0
  br i1 %14, label %15, label %45

15:                                               ; preds = %1
  %16 = load ptr, ptr %2, align 8, !tbaa !9
  %17 = getelementptr inbounds nuw %struct.prov_drbg_st, ptr %16, i32 0, i32 18
  store i64 0, ptr %17, align 8, !tbaa !46
  %18 = load ptr, ptr %2, align 8, !tbaa !9
  %19 = getelementptr inbounds nuw %struct.prov_drbg_st, ptr %18, i32 0, i32 19
  store i64 2147483647, ptr %19, align 8, !tbaa !47
  %20 = load ptr, ptr %2, align 8, !tbaa !9
  %21 = getelementptr inbounds nuw %struct.prov_drbg_st, ptr %20, i32 0, i32 20
  store i64 0, ptr %21, align 8, !tbaa !48
  %22 = load ptr, ptr %2, align 8, !tbaa !9
  %23 = getelementptr inbounds nuw %struct.prov_drbg_st, ptr %22, i32 0, i32 21
  store i64 2147483647, ptr %23, align 8, !tbaa !49
  %24 = load ptr, ptr %2, align 8, !tbaa !9
  %25 = getelementptr inbounds nuw %struct.prov_drbg_st, ptr %24, i32 0, i32 22
  store i64 2147483647, ptr %25, align 8, !tbaa !50
  %26 = load ptr, ptr %2, align 8, !tbaa !9
  %27 = getelementptr inbounds nuw %struct.prov_drbg_st, ptr %26, i32 0, i32 23
  store i64 2147483647, ptr %27, align 8, !tbaa !51
  %28 = load ptr, ptr %3, align 8, !tbaa !17
  %29 = getelementptr inbounds nuw %struct.rand_drbg_ctr_st, ptr %28, i32 0, i32 5
  %30 = load i64, ptr %29, align 8, !tbaa !52
  %31 = icmp ugt i64 %30, 0
  br i1 %31, label %32, label %44

32:                                               ; preds = %15
  %33 = load ptr, ptr %3, align 8, !tbaa !17
  %34 = getelementptr inbounds nuw %struct.rand_drbg_ctr_st, ptr %33, i32 0, i32 5
  %35 = load i64, ptr %34, align 8, !tbaa !52
  %36 = load ptr, ptr %2, align 8, !tbaa !9
  %37 = getelementptr inbounds nuw %struct.prov_drbg_st, ptr %36, i32 0, i32 18
  store i64 %35, ptr %37, align 8, !tbaa !46
  %38 = load ptr, ptr %2, align 8, !tbaa !9
  %39 = getelementptr inbounds nuw %struct.prov_drbg_st, ptr %38, i32 0, i32 18
  %40 = load i64, ptr %39, align 8, !tbaa !46
  %41 = udiv i64 %40, 2
  %42 = load ptr, ptr %2, align 8, !tbaa !9
  %43 = getelementptr inbounds nuw %struct.prov_drbg_st, ptr %42, i32 0, i32 20
  store i64 %41, ptr %43, align 8, !tbaa !48
  br label %44

44:                                               ; preds = %32, %15
  br label %73

45:                                               ; preds = %1
  call void @llvm.lifetime.start.p0(i64 8, ptr %5) #6
  %46 = load ptr, ptr %3, align 8, !tbaa !17
  %47 = getelementptr inbounds nuw %struct.rand_drbg_ctr_st, ptr %46, i32 0, i32 5
  %48 = load i64, ptr %47, align 8, !tbaa !52
  %49 = icmp ugt i64 %48, 0
  br i1 %49, label %50, label %54

50:                                               ; preds = %45
  %51 = load ptr, ptr %2, align 8, !tbaa !9
  %52 = getelementptr inbounds nuw %struct.prov_drbg_st, ptr %51, i32 0, i32 31
  %53 = load i64, ptr %52, align 8, !tbaa !53
  br label %55

54:                                               ; preds = %45
  br label %55

55:                                               ; preds = %54, %50
  %56 = phi i64 [ %53, %50 ], [ 2147483647, %54 ]
  store i64 %56, ptr %5, align 8, !tbaa !30
  %57 = load i64, ptr %5, align 8, !tbaa !30
  %58 = load ptr, ptr %2, align 8, !tbaa !9
  %59 = getelementptr inbounds nuw %struct.prov_drbg_st, ptr %58, i32 0, i32 18
  store i64 %57, ptr %59, align 8, !tbaa !46
  %60 = load i64, ptr %5, align 8, !tbaa !30
  %61 = load ptr, ptr %2, align 8, !tbaa !9
  %62 = getelementptr inbounds nuw %struct.prov_drbg_st, ptr %61, i32 0, i32 19
  store i64 %60, ptr %62, align 8, !tbaa !47
  %63 = load ptr, ptr %2, align 8, !tbaa !9
  %64 = getelementptr inbounds nuw %struct.prov_drbg_st, ptr %63, i32 0, i32 20
  store i64 0, ptr %64, align 8, !tbaa !48
  %65 = load ptr, ptr %2, align 8, !tbaa !9
  %66 = getelementptr inbounds nuw %struct.prov_drbg_st, ptr %65, i32 0, i32 21
  store i64 0, ptr %66, align 8, !tbaa !49
  %67 = load i64, ptr %5, align 8, !tbaa !30
  %68 = load ptr, ptr %2, align 8, !tbaa !9
  %69 = getelementptr inbounds nuw %struct.prov_drbg_st, ptr %68, i32 0, i32 22
  store i64 %67, ptr %69, align 8, !tbaa !50
  %70 = load i64, ptr %5, align 8, !tbaa !30
  %71 = load ptr, ptr %2, align 8, !tbaa !9
  %72 = getelementptr inbounds nuw %struct.prov_drbg_st, ptr %71, i32 0, i32 23
  store i64 %70, ptr %72, align 8, !tbaa !51
  call void @llvm.lifetime.end.p0(i64 8, ptr %5) #6
  br label %73

73:                                               ; preds = %55, %44
  %74 = load i32, ptr %4, align 4, !tbaa !27
  call void @llvm.lifetime.end.p0(i64 4, ptr %4) #6
  call void @llvm.lifetime.end.p0(i64 8, ptr %3) #6
  ret i32 %74
}

; Function Attrs: nounwind uwtable
define internal i32 @drbg_ctr_new(ptr noundef %0) #0 {
  %2 = alloca i32, align 4
  %3 = alloca ptr, align 8
  %4 = alloca ptr, align 8
  %5 = alloca i32, align 4
  store ptr %0, ptr %3, align 8, !tbaa !9
  call void @llvm.lifetime.start.p0(i64 8, ptr %4) #6
  %6 = call noalias ptr @CRYPTO_secure_zalloc(i64 noundef 176, ptr noundef @.str, i32 noundef 625)
  store ptr %6, ptr %4, align 8, !tbaa !17
  %7 = load ptr, ptr %4, align 8, !tbaa !17
  %8 = icmp eq ptr %7, null
  br i1 %8, label %9, label %10

9:                                                ; preds = %1
  store i32 0, ptr %2, align 4
  store i32 1, ptr %5, align 4
  br label %18

10:                                               ; preds = %1
  %11 = load ptr, ptr %4, align 8, !tbaa !17
  %12 = getelementptr inbounds nuw %struct.rand_drbg_ctr_st, ptr %11, i32 0, i32 6
  store i32 1, ptr %12, align 8, !tbaa !34
  %13 = load ptr, ptr %4, align 8, !tbaa !17
  %14 = load ptr, ptr %3, align 8, !tbaa !9
  %15 = getelementptr inbounds nuw %struct.prov_drbg_st, ptr %14, i32 0, i32 33
  store ptr %13, ptr %15, align 8, !tbaa !11
  %16 = load ptr, ptr %3, align 8, !tbaa !9
  %17 = call i32 @drbg_ctr_init_lengths(ptr noundef %16)
  store i32 %17, ptr %2, align 4
  store i32 1, ptr %5, align 4
  br label %18

18:                                               ; preds = %10, %9
  call void @llvm.lifetime.end.p0(i64 8, ptr %4) #6
  %19 = load i32, ptr %2, align 4
  ret i32 %19
}