; Function Attrs: nounwind uwtable
define internal range(i32 0, 2) i32 @drbg_ctr_new(ptr noundef writeonly captures(none) %0) #0 {
  %2 = tail call noalias ptr @CRYPTO_secure_zalloc(i64 noundef 176, ptr noundef nonnull @.str, i32 noundef 625) #7
  %3 = icmp eq ptr %2, null
  br i1 %3, label %drbg_ctr_init_lengths.exit, label %4

4:                                                ; preds = %1
  %5 = getelementptr inbounds nuw i8, ptr %2, i64 48
  store i32 1, ptr %5, align 8, !tbaa !23
  %6 = getelementptr inbounds nuw i8, ptr %0, i64 240
  store ptr %2, ptr %6, align 8, !tbaa !3
  %7 = getelementptr inbounds nuw i8, ptr %0, i64 128
  store i64 65536, ptr %7, align 8, !tbaa !30
  %8 = getelementptr inbounds nuw i8, ptr %0, i64 136
  store i64 0, ptr %8, align 8, !tbaa !31
  %9 = getelementptr inbounds nuw i8, ptr %0, i64 144
  store i64 2147483647, ptr %9, align 8, !tbaa !32
  %10 = getelementptr inbounds nuw i8, ptr %0, i64 152
  store i64 0, ptr %10, align 8, !tbaa !33
  %11 = getelementptr inbounds nuw i8, ptr %0, i64 160
  store i64 2147483647, ptr %11, align 8, !tbaa !34
  %12 = getelementptr inbounds nuw i8, ptr %0, i64 168
  store i64 2147483647, ptr %12, align 8, !tbaa !35
  %13 = getelementptr inbounds nuw i8, ptr %0, i64 176
  store i64 2147483647, ptr %13, align 8, !tbaa !36
  %14 = getelementptr inbounds nuw i8, ptr %2, i64 40
  %15 = load i64, ptr %14, align 8, !tbaa !37
  %.not27.i = icmp eq i64 %15, 0
  br i1 %.not27.i, label %drbg_ctr_init_lengths.exit, label %16

16:                                               ; preds = %4
  store i64 %15, ptr %8, align 8, !tbaa !31
  %17 = lshr i64 %15, 1
  store i64 %17, ptr %10, align 8, !tbaa !33
  br label %drbg_ctr_init_lengths.exit

drbg_ctr_init_lengths.exit:                       ; preds = %16, %4, %1
  %.0 = phi i32 [ 0, %1 ], [ 1, %4 ], [ 1, %16 ]
  ret i32 %.0
}